target datalayout = "e-m:e-p270:32:32-p271:32:32-p272:64:64-i64:64-i128:128-f80:128-n8:16:32:64-S128"
target triple = "x86_64-pc-linux-gnu"

%struct.AVFilterContext = type { ptr, ptr, ptr, ptr, ptr, i32, ptr, ptr, i32, ptr, ptr, i32, i32, ptr, ptr, ptr, ptr, i32, ptr, i32, i32 }
%struct.MetadataContext = type { ptr, i32, ptr, ptr, i32, ptr, ptr, [4 x double], ptr, ptr, ptr, ptr, i32 }
%struct.__va_list_tag = type { i32, i32, ptr, ptr }

; Function Attrs: inlinehint nounwind uwtable
define internal i64 @av_strnlen(ptr noundef %0, i64 noundef %1) #3 {
  %3 = alloca ptr, align 8
  %4 = alloca i64, align 8
  %5 = alloca i64, align 8
  store ptr %0, ptr %3, align 8, !tbaa !74
  store i64 %1, ptr %4, align 8, !tbaa !75
  call void @llvm.lifetime.start.p0(i64 8, ptr %5) #11
  store i64 0, ptr %5, align 8, !tbaa !75
  br label %6

6:                                                ; preds = %20, %2
  %7 = load i64, ptr %5, align 8, !tbaa !75
  %8 = load i64, ptr %4, align 8, !tbaa !75
  %9 = icmp ult i64 %7, %8
  br i1 %9, label %10, label %17

10:                                               ; preds = %6
  %11 = load ptr, ptr %3, align 8, !tbaa !74
  %12 = load i64, ptr %5, align 8, !tbaa !75
  %13 = getelementptr inbounds nuw i8, ptr %11, i64 %12
  %14 = load i8, ptr %13, align 1, !tbaa !82
  %15 = sext i8 %14 to i32
  %16 = icmp ne i32 %15, 0
  br label %17

17:                                               ; preds = %10, %6
  %18 = phi i1 [ false, %6 ], [ %16, %10 ]
  br i1 %18, label %19, label %23

19:                                               ; preds = %17
  br label %20

20:                                               ; preds = %19
  %21 = load i64, ptr %5, align 8, !tbaa !75
  %22 = add i64 %21, 1
  store i64 %22, ptr %5, align 8, !tbaa !75
  br label %6, !llvm.loop !83

23:                                               ; preds = %17
  %24 = load i64, ptr %5, align 8, !tbaa !75
  call void @llvm.lifetime.end.p0(i64 8, ptr %5) #11
  ret i64 %24
}

; Function Attrs: nounwind uwtable
define internal void @print_file(ptr noundef %0, ptr noundef %1, ...) #1 {
  %3 = alloca ptr, align 8
  %4 = alloca ptr, align 8
  %5 = alloca ptr, align 8
  %6 = alloca [1 x %struct.__va_list_tag], align 16
  %7 = alloca [128 x i8], align 16
  store ptr %0, ptr %3, align 8, !tbaa !4
  store ptr %1, ptr %4, align 8, !tbaa !74
  call void @llvm.lifetime.start.p0(i64 8, ptr %5) #11
  %8 = load ptr, ptr %3, align 8, !tbaa !4
  %9 = getelementptr inbounds nuw %struct.AVFilterContext, ptr %8, i32 0, i32 9
  %10 = load ptr, ptr %9, align 8, !tbaa !9
  store ptr %10, ptr %5, align 8, !tbaa !22
  call void @llvm.lifetime.start.p0(i64 24, ptr %6) #11
  %11 = getelementptr inbounds [1 x %struct.__va_list_tag], ptr %6, i64 0, i64 0
  call void @llvm.va_start.p0(ptr %11)
  %12 = load ptr, ptr %4, align 8, !tbaa !74
  %13 = icmp ne ptr %12, null
  br i1 %13, label %14, label %26

14:                                               ; preds = %2
  call void @llvm.lifetime.start.p0(i64 128, ptr %7) #11
  %15 = getelementptr inbounds [128 x i8], ptr %7, i64 0, i64 0
  %16 = load ptr, ptr %4, align 8, !tbaa !74
  %17 = getelementptr inbounds [1 x %struct.__va_list_tag], ptr %6, i64 0, i64 0
  %18 = call i32 @vsnprintf(ptr noundef %15, i64 noundef 128, ptr noundef %16, ptr noundef %17) #11
  %19 = load ptr, ptr %5, align 8, !tbaa !22
  %20 = getelementptr inbounds nuw %struct.MetadataContext, ptr %19, i32 0, i32 8
  %21 = load ptr, ptr %20, align 8, !tbaa !36
  %22 = getelementptr inbounds [128 x i8], ptr %7, i64 0, i64 0
  %23 = getelementptr inbounds [128 x i8], ptr %7, i64 0, i64 0
  %24 = call i64 @av_strnlen(ptr noundef %23, i64 noundef 128)
  %25 = trunc i64 %24 to i32
  call void @avio_write(ptr noundef %21, ptr noundef %22, i32 noundef %25)
  call void @llvm.lifetime.end.p0(i64 128, ptr %7) #11
  br label %26

26:                                               ; preds = %14, %2
  %27 = getelementptr inbounds [1 x %struct.__va_list_tag], ptr %6, i64 0, i64 0
  call void @llvm.va_end.p0(ptr %27)
  call void @llvm.lifetime.end.p0(i64 24, ptr %6) #11
  call void @llvm.lifetime.end.p0(i64 8, ptr %5) #11
  ret void
}