; Function Attrs: nounwind uwtable
define internal void @print_file(ptr noundef readonly captures(none) %0, ptr noundef readonly captures(address_is_null) %1, ...) #1 {
  %3 = alloca [1 x %struct.__va_list_tag], align 16
  %4 = alloca [128 x i8], align 16
  %5 = getelementptr inbounds nuw i8, ptr %0, i64 72
  %6 = load ptr, ptr %5, align 8, !tbaa !4
  call void @llvm.lifetime.start.p0(i64 24, ptr nonnull %3) #14
  call void @llvm.va_start.p0(ptr nonnull %3)
  %.not = icmp eq ptr %1, null
  br i1 %.not, label %17, label %7

7:                                                ; preds = %2
  call void @llvm.lifetime.start.p0(i64 128, ptr nonnull %4) #14
  %8 = call i32 @vsnprintf(ptr noundef nonnull %4, i64 noundef 128, ptr noundef nonnull %1, ptr noundef nonnull %3) #14
  %9 = getelementptr inbounds nuw i8, ptr %6, i64 88
  %10 = load ptr, ptr %9, align 8, !tbaa !31
  br label %11

11:                                               ; preds = %14, %7
  %.05.i = phi i64 [ 0, %7 ], [ %15, %14 ]
  %12 = getelementptr inbounds nuw i8, ptr %4, i64 %.05.i
  %13 = load i8, ptr %12, align 1, !tbaa !68
  %.not.i = icmp eq i8 %13, 0
  br i1 %.not.i, label %av_strnlen.exit, label %14

14:                                               ; preds = %11
  %15 = add nuw nsw i64 %.05.i, 1
  %exitcond.not.i = icmp eq i64 %15, 128
  br i1 %exitcond.not.i, label %av_strnlen.exit, label %11, !llvm.loop !69

av_strnlen.exit:                                  ; preds = %11, %14
  %.0.lcssa.i = phi i64 [ 128, %14 ], [ %.05.i, %11 ]
  %16 = trunc i64 %.0.lcssa.i to i32
  call void @avio_write(ptr noundef %10, ptr noundef nonnull %4, i32 noundef %16) #14
  call void @llvm.lifetime.end.p0(i64 128, ptr nonnull %4) #14
  br label %17

17:                                               ; preds = %av_strnlen.exit, %2
  call void @llvm.va_end.p0(ptr nonnull %3)
  call void @llvm.lifetime.end.p0(i64 24, ptr nonnull %3) #14
  ret void
}